target datalayout = "e-m:e-p270:32:32-p271:32:32-p272:64:64-i64:64-i128:128-f80:128-n8:16:32:64-S128"
target triple = "x86_64-pc-linux-gnu"

%struct.dt_iop_order_iccprofile_info_t = type { i32, [512 x i8], i32, [56 x i8], [4 x [4 x float]], [4 x [4 x float]], i32, [3 x ptr], [3 x ptr], [8 x i8], [3 x [3 x float]], [12 x i8], [3 x [3 x float]], i32, float, [36 x i8], [4 x [4 x float]], [4 x [4 x float]], [3 x [2 x float]], [2 x float], [32 x i8] }

; Function Attrs: nounwind uwtable
define void @dt_ioppr_cleanup_profile_info(ptr noundef %0) #0 {
  %2 = alloca ptr, align 8
  %3 = alloca i32, align 4
  store ptr %0, ptr %2, align 8, !tbaa !6
  call void @llvm.lifetime.start.p0(i64 4, ptr %3) #10
  store i32 0, ptr %3, align 4, !tbaa !11
  br label %4

4:                                                ; preds = %39, %1
  %5 = load i32, ptr %3, align 4, !tbaa !11
  %6 = icmp slt i32 %5, 3
  br i1 %6, label %8, label %7

7:                                                ; preds = %4
  call void @llvm.lifetime.end.p0(i64 4, ptr %3) #10
  br label %42

8:                                                ; preds = %4
  %9 = load ptr, ptr %2, align 8, !tbaa !6
  %10 = getelementptr inbounds nuw %struct.dt_iop_order_iccprofile_info_t, ptr %9, i32 0, i32 7
  %11 = load i32, ptr %3, align 4, !tbaa !11
  %12 = sext i32 %11 to i64
  %13 = getelementptr inbounds [3 x ptr], ptr %10, i64 0, i64 %12
  %14 = load ptr, ptr %13, align 8, !tbaa !22
  %15 = icmp ne ptr %14, null
  br i1 %15, label %16, label %23

16:                                               ; preds = %8
  %17 = load ptr, ptr %2, align 8, !tbaa !6
  %18 = getelementptr inbounds nuw %struct.dt_iop_order_iccprofile_info_t, ptr %17, i32 0, i32 7
  %19 = load i32, ptr %3, align 4, !tbaa !11
  %20 = sext i32 %19 to i64
  %21 = getelementptr inbounds [3 x ptr], ptr %18, i64 0, i64 %20
  %22 = load ptr, ptr %21, align 8, !tbaa !22
  call void @free(ptr noundef %22) #10
  br label %23

23:                                               ; preds = %16, %8
  %24 = load ptr, ptr %2, align 8, !tbaa !6
  %25 = getelementptr inbounds nuw %struct.dt_iop_order_iccprofile_info_t, ptr %24, i32 0, i32 8
  %26 = load i32, ptr %3, align 4, !tbaa !11
  %27 = sext i32 %26 to i64
  %28 = getelementptr inbounds [3 x ptr], ptr %25, i64 0, i64 %27
  %29 = load ptr, ptr %28, align 8, !tbaa !22
  %30 = icmp ne ptr %29, null
  br i1 %30, label %31, label %38

31:                                               ; preds = %23
  %32 = load ptr, ptr %2, align 8, !tbaa !6
  %33 = getelementptr inbounds nuw %struct.dt_iop_order_iccprofile_info_t, ptr %32, i32 0, i32 8
  %34 = load i32, ptr %3, align 4, !tbaa !11
  %35 = sext i32 %34 to i64
  %36 = getelementptr inbounds [3 x ptr], ptr %33, i64 0, i64 %35
  %37 = load ptr, ptr %36, align 8, !tbaa !22
  call void @free(ptr noundef %37) #10
  br label %38

38:                                               ; preds = %31, %23
  br label %39

39:                                               ; preds = %38
  %40 = load i32, ptr %3, align 4, !tbaa !11
  %41 = add nsw i32 %40, 1
  store i32 %41, ptr %3, align 4, !tbaa !11
  br label %4

42:                                               ; preds = %7
  ret void
}