; Function Attrs: nounwind uwtable
define void @dt_ioppr_cleanup_profile_info(ptr noundef readonly captures(none) %0) local_unnamed_addr #0 {
  %2 = getelementptr inbounds nuw i8, ptr %0, i64 712
  %3 = getelementptr inbounds nuw i8, ptr %0, i64 736
  br label %5

4:                                                ; preds = %13
  ret void

5:                                                ; preds = %1, %13
  %indvars.iv = phi i64 [ 0, %1 ], [ %indvars.iv.next, %13 ]
  %6 = getelementptr inbounds nuw [3 x ptr], ptr %2, i64 0, i64 %indvars.iv
  %7 = load ptr, ptr %6, align 8, !tbaa !18
  %.not = icmp eq ptr %7, null
  br i1 %.not, label %9, label %8

8:                                                ; preds = %5
  tail call void @free(ptr noundef nonnull %7) #17
  br label %9

9:                                                ; preds = %8, %5
  %10 = getelementptr inbounds nuw [3 x ptr], ptr %3, i64 0, i64 %indvars.iv
  %11 = load ptr, ptr %10, align 8, !tbaa !18
  %.not11 = icmp eq ptr %11, null
  br i1 %.not11, label %13, label %12

12:                                               ; preds = %9
  tail call void @free(ptr noundef nonnull %11) #17
  br label %13

13:                                               ; preds = %9, %12
  %indvars.iv.next = add nuw nsw i64 %indvars.iv, 1
  %exitcond.not = icmp eq i64 %indvars.iv.next, 3
  br i1 %exitcond.not, label %4, label %5
}